; Function Attrs: mustprogress uwtable
define void @_ZN7Archive14UnexpEndArcMsgEv(ptr noundef nonnull align 8 dereferenceable(57108) %0) local_unnamed_addr #0 align 2 {
  %2 = alloca %class.uiMsgStore, align 8
  %3 = tail call noundef i64 @_ZN4File10FileLengthEv(ptr noundef nonnull align 8 dereferenceable(8256) %0)
  %4 = getelementptr inbounds i8, ptr %0, i64 48824
  %5 = load i64, ptr %4, align 8
  %.not = icmp eq i64 %5, %3
  %6 = getelementptr inbounds i8, ptr %0, i64 48832
  %7 = load i64, ptr %6, align 8
  %.not2 = icmp eq i64 %7, %3
  %or.cond = select i1 %.not, i1 %.not2, i1 false
  br i1 %or.cond, label %15, label %8

8:                                                ; preds = %1
  call void @llvm.lifetime.start.p0(i64 112, ptr nonnull %2)
  br label %9

9:                                                ; preds = %9, %8
  %indvars.iv.i.i = phi i64 [ 0, %8 ], [ %indvars.iv.next.i.i, %9 ]
  %10 = getelementptr inbounds [8 x ptr], ptr %2, i64 0, i64 %indvars.iv.i.i
  store ptr @.str.8, ptr %10, align 8
  %indvars.iv.next.i.i = add nuw nsw i64 %indvars.iv.i.i, 1
  %exitcond.not.i.i = icmp eq i64 %indvars.iv.next.i.i, 8
  br i1 %exitcond.not.i.i, label %_Z5uiMsgIJRA2048_wEEv14UIMESSAGE_CODEDpOT_.exit, label %9, !llvm.loop !4

_Z5uiMsgIJRA2048_wEEv14UIMESSAGE_CODEDpOT_.exit:  ; preds = %9
  %11 = getelementptr inbounds i8, ptr %0, i64 52
  %12 = getelementptr inbounds i8, ptr %2, i64 64
  %13 = getelementptr inbounds i8, ptr %2, i64 104
  call void @llvm.memset.p0.i64(ptr noundef nonnull align 8 dereferenceable(40) %12, i8 0, i64 40, i1 false)
  store i32 56, ptr %13, align 8
  %14 = getelementptr inbounds i8, ptr %2, i64 96
  store i32 1, ptr %14, align 8
  store ptr %11, ptr %2, align 8
  call void @_ZN10uiMsgStore3MsgEv(ptr noundef nonnull align 8 dereferenceable(108) %2)
  call void @llvm.lifetime.end.p0(i64 112, ptr nonnull %2)
  call void @_ZN12ErrorHandler12SetErrorCodeE8RAR_EXIT(ptr noundef nonnull align 4 dereferenceable(14) @ErrHandler, i32 noundef 1)
  br label %15

15:                                               ; preds = %1, %_Z5uiMsgIJRA2048_wEEv14UIMESSAGE_CODEDpOT_.exit
  ret void
}